target datalayout = "e-m:e-p270:32:32-p271:32:32-p272:64:64-i64:64-i128:128-f80:128-n8:16:32:64-S128"
target triple = "x86_64-unknown-linux-gnu"

%struct.strList = type { ptr, ptr }
%struct.MachineClass = type { %struct.ObjectClass, ptr, ptr, ptr, ptr, ptr, ptr, ptr, ptr, ptr, i32, i32, i32, i32, i32, i8, i8, ptr, ptr, ptr, ptr, ptr, ptr, i64, ptr, i8, i8, i8, i32, i8, i8, i32, ptr, ptr, i8, i8, i8, i8, i8, i8, i8, i8, %struct.SMPCompatProps, ptr, ptr, ptr, ptr, ptr, ptr, ptr }
%struct.ObjectClass = type { ptr, ptr, [4 x ptr], [4 x ptr], ptr, ptr }
%struct.SMPCompatProps = type { i8, i8, i8, i8, i8, i8 }

@.str.198 = private unnamed_addr constant [15 x i8] c"sys-bus-device\00", align 1

; Function Attrs: nounwind sspstrong uwtable
define dso_local zeroext i1 @device_type_is_dynamic_sysbus(ptr noundef %mc, ptr noundef %type) #0 {
entry:
  %mc.addr = alloca ptr, align 8
  %type.addr = alloca ptr, align 8
  %allowed = alloca i8, align 1
  %wl = alloca ptr, align 8
  %klass = alloca ptr, align 8
  store ptr %mc, ptr %mc.addr, align 8
  store ptr %type, ptr %type.addr, align 8
  store i8 0, ptr %allowed, align 1
  %0 = load ptr, ptr %type.addr, align 8
  %call = call ptr @object_class_by_name(ptr noundef %0)
  store ptr %call, ptr %klass, align 8
  %1 = load ptr, ptr %mc.addr, align 8
  %allowed_dynamic_sysbus_devices = getelementptr inbounds %struct.MachineClass, ptr %1, i32 0, i32 33
  %2 = load ptr, ptr %allowed_dynamic_sysbus_devices, align 8
  store ptr %2, ptr %wl, align 8
  br label %for.cond

for.cond:                                         ; preds = %for.inc, %entry
  %3 = load i8, ptr %allowed, align 1
  %tobool = trunc i8 %3 to i1
  br i1 %tobool, label %land.end, label %land.rhs

land.rhs:                                         ; preds = %for.cond
  %4 = load ptr, ptr %wl, align 8
  %tobool1 = icmp ne ptr %4, null
  br label %land.end

land.end:                                         ; preds = %land.rhs, %for.cond
  %5 = phi i1 [ false, %for.cond ], [ %tobool1, %land.rhs ]
  br i1 %5, label %for.body, label %for.end

for.body:                                         ; preds = %land.end
  %6 = load ptr, ptr %klass, align 8
  %7 = load ptr, ptr %wl, align 8
  %value = getelementptr inbounds %struct.strList, ptr %7, i32 0, i32 1
  %8 = load ptr, ptr %value, align 8
  %call2 = call ptr @object_class_dynamic_cast(ptr noundef %6, ptr noundef %8)
  %tobool3 = icmp ne ptr %call2, null
  %lnot = xor i1 %tobool3, true
  %lnot4 = xor i1 %lnot, true
  %lnot.ext = zext i1 %lnot4 to i32
  %9 = load i8, ptr %allowed, align 1
  %tobool5 = trunc i8 %9 to i1
  %conv = zext i1 %tobool5 to i32
  %or = or i32 %conv, %lnot.ext
  %tobool6 = icmp ne i32 %or, 0
  %frombool = zext i1 %tobool6 to i8
  store i8 %frombool, ptr %allowed, align 1
  br label %for.inc

for.inc:                                          ; preds = %for.body
  %10 = load ptr, ptr %wl, align 8
  %next = getelementptr inbounds %struct.strList, ptr %10, i32 0, i32 0
  %11 = load ptr, ptr %next, align 8
  store ptr %11, ptr %wl, align 8
  br label %for.cond, !llvm.loop !5

for.end:                                          ; preds = %land.end
  %12 = load i8, ptr %allowed, align 1
  %tobool7 = trunc i8 %12 to i1
  ret i1 %tobool7
}

; Function Attrs: nounwind sspstrong uwtable
define dso_local zeroext i1 @device_is_dynamic_sysbus(ptr noundef %mc, ptr noundef %dev) #0 {
entry:
  %retval = alloca i1, align 1
  %mc.addr = alloca ptr, align 8
  %dev.addr = alloca ptr, align 8
  %obj = alloca ptr, align 8
  store ptr %mc, ptr %mc.addr, align 8
  store ptr %dev, ptr %dev.addr, align 8
  %0 = load ptr, ptr %dev.addr, align 8
  store ptr %0, ptr %obj, align 8
  %1 = load ptr, ptr %obj, align 8
  %call = call ptr @object_dynamic_cast(ptr noundef %1, ptr noundef @.str.198)
  %tobool = icmp ne ptr %call, null
  br i1 %tobool, label %if.end, label %if.then

if.then:                                          ; preds = %entry
  store i1 false, ptr %retval, align 1
  br label %return

if.end:                                           ; preds = %entry
  %2 = load ptr, ptr %mc.addr, align 8
  %3 = load ptr, ptr %obj, align 8
  %call1 = call ptr @object_get_typename(ptr noundef %3)
  %call2 = call zeroext i1 @device_type_is_dynamic_sysbus(ptr noundef %2, ptr noundef %call1)
  store i1 %call2, ptr %retval, align 1
  br label %return

return:                                           ; preds = %if.end, %if.then
  %4 = load i1, ptr %retval, align 1
  ret i1 %4
}