; Function Attrs: nounwind sspstrong uwtable
define dso_local zeroext i1 @device_is_dynamic_sysbus(ptr noundef readonly captures(none) %mc, ptr noundef %dev) local_unnamed_addr #0 {
entry:
  %call = tail call ptr @object_dynamic_cast(ptr noundef %dev, ptr noundef nonnull @.str.198) #16
  %tobool.not = icmp eq ptr %call, null
  br i1 %tobool.not, label %return, label %if.end

if.end:                                           ; preds = %entry
  %call1 = tail call ptr @object_get_typename(ptr noundef %dev) #16
  %call.i = tail call ptr @object_class_by_name(ptr noundef %call1) #16
  %allowed_dynamic_sysbus_devices.i = getelementptr inbounds nuw i8, ptr %mc, i64 280
  %wl.06.i = load ptr, ptr %allowed_dynamic_sysbus_devices.i, align 8
  %tobool17.i = icmp eq ptr %wl.06.i, null
  br i1 %tobool17.i, label %return, label %for.body.i

for.body.i:                                       ; preds = %if.end, %for.body.i
  %wl.09.i = phi ptr [ %wl.0.i, %for.body.i ], [ %wl.06.i, %if.end ]
  %value.i = getelementptr inbounds nuw i8, ptr %wl.09.i, i64 8
  %0 = load ptr, ptr %value.i, align 8
  %call2.i = tail call ptr @object_class_dynamic_cast(ptr noundef %call.i, ptr noundef %0) #16
  %tobool3.i = icmp ne ptr %call2.i, null
  %wl.0.i = load ptr, ptr %wl.09.i, align 8
  %tobool1.i = icmp eq ptr %wl.0.i, null
  %.not.i = select i1 %tobool3.i, i1 true, i1 %tobool1.i
  br i1 %.not.i, label %return, label %for.body.i, !llvm.loop !5

return:                                           ; preds = %for.body.i, %if.end, %entry
  %retval.0 = phi i1 [ false, %entry ], [ false, %if.end ], [ %tobool3.i, %for.body.i ]
  ret i1 %retval.0
}